target datalayout = "e-m:e-p270:32:32-p271:32:32-p272:64:64-i64:64-i128:128-f80:128-n8:16:32:64-S128"
target triple = "x86_64-pc-linux-gnu"

%struct.m384 = type { <2 x i64>, <2 x i64>, <2 x i64> }
%struct.NFAAccept = type { i8, i32, i32 }

; Function Attrs: alwaysinline nounwind uwtable
define internal <2 x i64> @_mm_load_si128(ptr noundef %0) #3 {
  %2 = alloca ptr, align 8
  store ptr %0, ptr %2, align 8
  %3 = load ptr, ptr %2, align 8
  %4 = load <2 x i64>, ptr %3, align 16
  ret <2 x i64> %4
}

; Function Attrs: alwaysinline nounwind uwtable
define internal <2 x i64> @_mm_and_si128(<2 x i64> noundef %0, <2 x i64> noundef %1) #3 {
  %3 = alloca <2 x i64>, align 16
  %4 = alloca <2 x i64>, align 16
  store <2 x i64> %0, ptr %3, align 16
  store <2 x i64> %1, ptr %4, align 16
  %5 = load <2 x i64>, ptr %3, align 16
  %6 = load <2 x i64>, ptr %4, align 16
  %7 = and <2 x i64> %5, %6
  ret <2 x i64> %7
}

; Function Attrs: alwaysinline nounwind uwtable
define internal i64 @_mm_popcnt_u64(i64 noundef %0) #2 {
  %2 = alloca i64, align 8
  store i64 %0, ptr %2, align 8
  %3 = load i64, ptr %2, align 8
  %4 = call i64 @llvm.ctpop.i64(i64 %3)
  %5 = trunc i64 %4 to i32
  %6 = sext i32 %5 to i64
  ret i64 %6
}

; Function Attrs: alwaysinline nounwind uwtable
define internal <2 x i64> @load128(ptr noundef %0) #3 {
  %2 = alloca ptr, align 8
  store ptr %0, ptr %2, align 8
  %3 = load ptr, ptr %2, align 8
  call void @llvm.assume(i1 true) [ "align"(ptr %3, i64 16) ]
  store ptr %3, ptr %2, align 8
  %4 = load ptr, ptr %2, align 8
  %5 = call <2 x i64> @_mm_load_si128(ptr noundef %4)
  ret <2 x i64> %5
}

; Function Attrs: alwaysinline nounwind uwtable
define internal i32 @limexRunReports(ptr noundef %0, ptr noundef %1, ptr noundef %2, i64 noundef %3) #2 {
  %5 = alloca i32, align 4
  %6 = alloca ptr, align 8
  %7 = alloca ptr, align 8
  %8 = alloca ptr, align 8
  %9 = alloca i64, align 8
  %10 = alloca i32, align 4
  %11 = alloca i32, align 4
  store ptr %0, ptr %6, align 8
  store ptr %1, ptr %7, align 8
  store ptr %2, ptr %8, align 8
  store i64 %3, ptr %9, align 8
  br label %12

12:                                               ; preds = %32, %4
  %13 = load ptr, ptr %6, align 8
  %14 = load i32, ptr %13, align 4
  %15 = icmp ne i32 %14, -1
  br i1 %15, label %16, label %35

16:                                               ; preds = %12
  br label %17

17:                                               ; preds = %16
  br label %18

18:                                               ; preds = %17
  call void @llvm.lifetime.start.p0(i64 4, ptr %10) #12
  %19 = load ptr, ptr %7, align 8
  %20 = load i64, ptr %9, align 8
  %21 = load ptr, ptr %6, align 8
  %22 = load i32, ptr %21, align 4
  %23 = load ptr, ptr %8, align 8
  %24 = call i32 %19(i64 noundef 0, i64 noundef %20, i32 noundef %22, ptr noundef %23)
  store i32 %24, ptr %10, align 4
  %25 = load i32, ptr %10, align 4
  %26 = icmp eq i32 %25, 0
  br i1 %26, label %27, label %28

27:                                               ; preds = %18
  store i32 0, ptr %5, align 4
  store i32 1, ptr %11, align 4
  br label %29

28:                                               ; preds = %18
  store i32 0, ptr %11, align 4
  br label %29

29:                                               ; preds = %28, %27
  call void @llvm.lifetime.end.p0(i64 4, ptr %10) #12
  %30 = load i32, ptr %11, align 4
  switch i32 %30, label %38 [
    i32 0, label %31
    i32 1, label %36
  ]

31:                                               ; preds = %29
  br label %32

32:                                               ; preds = %31
  %33 = load ptr, ptr %6, align 8
  %34 = getelementptr inbounds nuw i32, ptr %33, i32 1
  store ptr %34, ptr %6, align 8
  br label %12

35:                                               ; preds = %12
  store i32 1, ptr %5, align 4
  br label %36

36:                                               ; preds = %35, %29
  %37 = load i32, ptr %5, align 4
  ret i32 %37

38:                                               ; preds = %29
  unreachable
}

; Function Attrs: alwaysinline nounwind uwtable
define internal <2 x i64> @and128(<2 x i64> noundef %0, <2 x i64> noundef %1) #3 {
  %3 = alloca <2 x i64>, align 16
  %4 = alloca <2 x i64>, align 16
  store <2 x i64> %0, ptr %3, align 16
  store <2 x i64> %1, ptr %4, align 16
  %5 = load <2 x i64>, ptr %3, align 16
  %6 = load <2 x i64>, ptr %4, align 16
  %7 = call <2 x i64> @_mm_and_si128(<2 x i64> noundef %5, <2 x i64> noundef %6)
  ret <2 x i64> %7
}

; Function Attrs: alwaysinline nounwind uwtable
define internal i32 @popcount64(i64 noundef %0) #2 {
  %2 = alloca i64, align 8
  store i64 %0, ptr %2, align 8
  %3 = load i64, ptr %2, align 8
  %4 = call i64 @_mm_popcnt_u64(i64 noundef %3)
  %5 = trunc i64 %4 to i32
  ret i32 %5
}

; Function Attrs: alwaysinline nounwind uwtable
define internal void @load384(ptr dead_on_unwind noalias writable sret(%struct.m384) align 16 %0, ptr noundef %1) #3 {
  %3 = alloca ptr, align 8
  store ptr %1, ptr %3, align 8
  %4 = getelementptr inbounds nuw %struct.m384, ptr %0, i32 0, i32 0
  %5 = load ptr, ptr %3, align 8
  %6 = call <2 x i64> @load128(ptr noundef %5)
  store <2 x i64> %6, ptr %4, align 16
  %7 = getelementptr inbounds nuw %struct.m384, ptr %0, i32 0, i32 1
  %8 = load ptr, ptr %3, align 8
  %9 = getelementptr inbounds i8, ptr %8, i64 16
  %10 = call <2 x i64> @load128(ptr noundef %9)
  store <2 x i64> %10, ptr %7, align 16
  %11 = getelementptr inbounds nuw %struct.m384, ptr %0, i32 0, i32 2
  %12 = load ptr, ptr %3, align 8
  %13 = getelementptr inbounds i8, ptr %12, i64 32
  %14 = call <2 x i64> @load128(ptr noundef %13)
  store <2 x i64> %14, ptr %11, align 16
  ret void
}

; Function Attrs: alwaysinline nounwind uwtable
define internal i32 @limexRunAccept(ptr noundef %0, ptr noundef %1, ptr noundef %2, ptr noundef %3, i64 noundef %4) #2 {
  %6 = alloca i32, align 4
  %7 = alloca ptr, align 8
  %8 = alloca ptr, align 8
  %9 = alloca ptr, align 8
  %10 = alloca ptr, align 8
  %11 = alloca i64, align 8
  %12 = alloca i32, align 4
  %13 = alloca ptr, align 8
  store ptr %0, ptr %7, align 8
  store ptr %1, ptr %8, align 8
  store ptr %2, ptr %9, align 8
  store ptr %3, ptr %10, align 8
  store i64 %4, ptr %11, align 8
  %14 = load ptr, ptr %8, align 8
  %15 = getelementptr inbounds nuw %struct.NFAAccept, ptr %14, i32 0, i32 0
  %16 = load i8, ptr %15, align 4
  %17 = icmp ne i8 %16, 0
  br i1 %17, label %18, label %30

18:                                               ; preds = %5
  call void @llvm.lifetime.start.p0(i64 4, ptr %12) #12
  %19 = load ptr, ptr %8, align 8
  %20 = getelementptr inbounds nuw %struct.NFAAccept, ptr %19, i32 0, i32 1
  %21 = load i32, ptr %20, align 4
  store i32 %21, ptr %12, align 4
  br label %22

22:                                               ; preds = %18
  br label %23

23:                                               ; preds = %22
  br label %24

24:                                               ; preds = %23
  %25 = load ptr, ptr %9, align 8
  %26 = load i64, ptr %11, align 8
  %27 = load i32, ptr %12, align 4
  %28 = load ptr, ptr %10, align 8
  %29 = call i32 %25(i64 noundef 0, i64 noundef %26, i32 noundef %27, ptr noundef %28)
  store i32 %29, ptr %6, align 4
  call void @llvm.lifetime.end.p0(i64 4, ptr %12) #12
  br label %42

30:                                               ; preds = %5
  call void @llvm.lifetime.start.p0(i64 8, ptr %13) #12
  %31 = load ptr, ptr %7, align 8
  %32 = load ptr, ptr %8, align 8
  %33 = getelementptr inbounds nuw %struct.NFAAccept, ptr %32, i32 0, i32 1
  %34 = load i32, ptr %33, align 4
  %35 = zext i32 %34 to i64
  %36 = getelementptr inbounds nuw i8, ptr %31, i64 %35
  store ptr %36, ptr %13, align 8
  %37 = load ptr, ptr %13, align 8
  %38 = load ptr, ptr %9, align 8
  %39 = load ptr, ptr %10, align 8
  %40 = load i64, ptr %11, align 8
  %41 = call i32 @limexRunReports(ptr noundef %37, ptr noundef %38, ptr noundef %39, i64 noundef %40)
  store i32 %41, ptr %6, align 4
  call void @llvm.lifetime.end.p0(i64 8, ptr %13) #12
  br label %42

42:                                               ; preds = %30, %24
  %43 = load i32, ptr %6, align 4
  ret i32 %43
}

; Function Attrs: alwaysinline nounwind uwtable
define internal i32 @rank_in_mask64(i64 noundef %0, i32 noundef %1) #2 {
  %3 = alloca i64, align 8
  %4 = alloca i32, align 4
  store i64 %0, ptr %3, align 8
  store i32 %1, ptr %4, align 4
  %5 = load i32, ptr %4, align 4
  %6 = zext i32 %5 to i64
  %7 = shl i64 1, %6
  %8 = sub i64 %7, 1
  %9 = load i64, ptr %3, align 8
  %10 = and i64 %9, %8
  store i64 %10, ptr %3, align 8
  %11 = load i64, ptr %3, align 8
  %12 = call i32 @popcount64(i64 noundef %11)
  ret i32 %12
}

; Function Attrs: alwaysinline nounwind uwtable
define internal i32 @findAndClearLSB_64(ptr noundef %0) #2 {
  %2 = alloca ptr, align 8
  %3 = alloca i64, align 8
  %4 = alloca i64, align 8
  store ptr %0, ptr %2, align 8
  call void @llvm.lifetime.start.p0(i64 8, ptr %3) #12
  %5 = load ptr, ptr %2, align 8
  %6 = load i64, ptr %5, align 8
  store i64 %6, ptr %3, align 8
  call void @llvm.lifetime.start.p0(i64 8, ptr %4) #12
  %7 = load i64, ptr %3, align 8
  %8 = call { i64, i64 } asm "bsfq $1, $0\0Abtrq $0, $1\0A", "=r,=r,1,~{dirflag},~{fpsr},~{flags}"(i64 %7) #13, !srcloc !5
  %9 = extractvalue { i64, i64 } %8, 0
  %10 = extractvalue { i64, i64 } %8, 1
  store i64 %9, ptr %4, align 8
  store i64 %10, ptr %3, align 8
  %11 = load i64, ptr %3, align 8
  %12 = load ptr, ptr %2, align 8
  store i64 %11, ptr %12, align 8
  %13 = load i64, ptr %4, align 8
  %14 = trunc i64 %13 to i32
  call void @llvm.lifetime.end.p0(i64 8, ptr %4) #12
  call void @llvm.lifetime.end.p0(i64 8, ptr %3) #12
  ret i32 %14
}

; Function Attrs: alwaysinline nounwind uwtable
define internal void @and384(ptr dead_on_unwind noalias writable sret(%struct.m384) align 16 %0, ptr noundef byval(%struct.m384) align 16 %1, ptr noundef byval(%struct.m384) align 16 %2) #3 {
  %4 = getelementptr inbounds nuw %struct.m384, ptr %1, i32 0, i32 0
  %5 = load <2 x i64>, ptr %4, align 16
  %6 = getelementptr inbounds nuw %struct.m384, ptr %2, i32 0, i32 0
  %7 = load <2 x i64>, ptr %6, align 16
  %8 = call <2 x i64> @and128(<2 x i64> noundef %5, <2 x i64> noundef %7)
  %9 = getelementptr inbounds nuw %struct.m384, ptr %0, i32 0, i32 0
  store <2 x i64> %8, ptr %9, align 16
  %10 = getelementptr inbounds nuw %struct.m384, ptr %1, i32 0, i32 1
  %11 = load <2 x i64>, ptr %10, align 16
  %12 = getelementptr inbounds nuw %struct.m384, ptr %2, i32 0, i32 1
  %13 = load <2 x i64>, ptr %12, align 16
  %14 = call <2 x i64> @and128(<2 x i64> noundef %11, <2 x i64> noundef %13)
  %15 = getelementptr inbounds nuw %struct.m384, ptr %0, i32 0, i32 1
  store <2 x i64> %14, ptr %15, align 16
  %16 = getelementptr inbounds nuw %struct.m384, ptr %1, i32 0, i32 2
  %17 = load <2 x i64>, ptr %16, align 16
  %18 = getelementptr inbounds nuw %struct.m384, ptr %2, i32 0, i32 2
  %19 = load <2 x i64>, ptr %18, align 16
  %20 = call <2 x i64> @and128(<2 x i64> noundef %17, <2 x i64> noundef %19)
  %21 = getelementptr inbounds nuw %struct.m384, ptr %0, i32 0, i32 2
  store <2 x i64> %20, ptr %21, align 16
  ret void
}

; Function Attrs: alwaysinline nounwind uwtable
define internal signext i8 @moProcessAcceptsImpl384(ptr noundef %0, ptr noundef %1, ptr noundef %2, ptr noundef %3, ptr noundef %4, i64 noundef %5, ptr noundef %6, ptr noundef %7) #2 {
  %9 = alloca i8, align 1
  %10 = alloca ptr, align 8
  %11 = alloca ptr, align 8
  %12 = alloca ptr, align 8
  %13 = alloca ptr, align 8
  %14 = alloca ptr, align 8
  %15 = alloca i64, align 8
  %16 = alloca ptr, align 8
  %17 = alloca ptr, align 8
  %18 = alloca %struct.m384, align 16
  %19 = alloca %struct.m384, align 16
  %20 = alloca [6 x i64], align 16
  %21 = alloca [6 x i64], align 16
  %22 = alloca i32, align 4
  %23 = alloca i32, align 4
  %24 = alloca i32, align 4
  %25 = alloca i64, align 8
  %26 = alloca i32, align 4
  %27 = alloca i32, align 4
  %28 = alloca i32, align 4
  %29 = alloca ptr, align 8
  %30 = alloca i32, align 4
  %31 = alloca ptr, align 8
  %32 = alloca %struct.m384, align 16
  %33 = alloca %struct.m384, align 16
  store ptr %0, ptr %10, align 8
  store ptr %1, ptr %11, align 8
  store ptr %2, ptr %12, align 8
  store ptr %3, ptr %13, align 8
  store ptr %4, ptr %14, align 8
  store i64 %5, ptr %15, align 8
  store ptr %6, ptr %16, align 8
  store ptr %7, ptr %17, align 8
  call void @llvm.lifetime.start.p0(i64 48, ptr %18) #12
  %34 = load ptr, ptr %13, align 8
  call void @llvm.memcpy.p0.p0.i64(ptr align 16 %18, ptr align 16 %34, i64 48, i1 false)
  call void @llvm.lifetime.start.p0(i64 48, ptr %19) #12
  %35 = load ptr, ptr %11, align 8
  call void @and384(ptr dead_on_unwind writable sret(%struct.m384) align 16 %19, ptr noundef byval(%struct.m384) align 16 %35, ptr noundef byval(%struct.m384) align 16 %18)
  call void @llvm.lifetime.start.p0(i64 48, ptr %20) #12
  %36 = getelementptr inbounds [6 x i64], ptr %20, i64 0, i64 0
  call void @llvm.memcpy.p0.p0.i64(ptr align 16 %36, ptr align 16 %19, i64 48, i1 false)
  call void @llvm.lifetime.start.p0(i64 48, ptr %21) #12
  %37 = getelementptr inbounds [6 x i64], ptr %21, i64 0, i64 0
  call void @llvm.memcpy.p0.p0.i64(ptr align 16 %37, ptr align 16 %18, i64 48, i1 false)
  call void @llvm.lifetime.start.p0(i64 4, ptr %22) #12
  store i32 0, ptr %22, align 4
  call void @llvm.lifetime.start.p0(i64 4, ptr %23) #12
  store i32 0, ptr %23, align 4
  br label %38

38:                                               ; preds = %120, %8
  %39 = load i32, ptr %23, align 4
  %40 = zext i32 %39 to i64
  %41 = icmp ult i64 %40, 6
  br i1 %41, label %43, label %42

42:                                               ; preds = %38
  store i32 2, ptr %24, align 4
  br label %123

43:                                               ; preds = %38
  call void @llvm.lifetime.start.p0(i64 8, ptr %25) #12
  %44 = load i32, ptr %23, align 4
  %45 = zext i32 %44 to i64
  %46 = getelementptr inbounds nuw [6 x i64], ptr %20, i64 0, i64 %45
  %47 = load i64, ptr %46, align 8
  store i64 %47, ptr %25, align 8
  br label %48

48:                                               ; preds = %108, %43
  %49 = load i64, ptr %25, align 8
  %50 = icmp ne i64 %49, 0
  br i1 %50, label %51, label %109

51:                                               ; preds = %48
  call void @llvm.lifetime.start.p0(i64 4, ptr %26) #12
  %52 = call i32 @findAndClearLSB_64(ptr noundef %25)
  store i32 %52, ptr %26, align 4
  call void @llvm.lifetime.start.p0(i64 4, ptr %27) #12
  %53 = load i32, ptr %23, align 4
  %54 = zext i32 %53 to i64
  %55 = getelementptr inbounds nuw [6 x i64], ptr %21, i64 0, i64 %54
  %56 = load i64, ptr %55, align 8
  %57 = load i32, ptr %26, align 4
  %58 = call i32 @rank_in_mask64(i64 noundef %56, i32 noundef %57)
  store i32 %58, ptr %27, align 4
  call void @llvm.lifetime.start.p0(i64 4, ptr %28) #12
  %59 = load i32, ptr %27, align 4
  %60 = load i32, ptr %22, align 4
  %61 = add i32 %59, %60
  store i32 %61, ptr %28, align 4
  call void @llvm.lifetime.start.p0(i64 8, ptr %29) #12
  %62 = load ptr, ptr %14, align 8
  %63 = load i32, ptr %28, align 4
  %64 = zext i32 %63 to i64
  %65 = getelementptr inbounds nuw %struct.NFAAccept, ptr %62, i64 %64
  store ptr %65, ptr %29, align 8
  br label %66

66:                                               ; preds = %51
  br label %67

67:                                               ; preds = %66
  br label %68

68:                                               ; preds = %67
  call void @llvm.lifetime.start.p0(i64 4, ptr %30) #12
  %69 = load ptr, ptr %10, align 8
  %70 = load ptr, ptr %29, align 8
  %71 = load ptr, ptr %16, align 8
  %72 = load ptr, ptr %17, align 8
  %73 = load i64, ptr %15, align 8
  %74 = call i32 @limexRunAccept(ptr noundef %69, ptr noundef %70, ptr noundef %71, ptr noundef %72, i64 noundef %73)
  store i32 %74, ptr %30, align 4
  %75 = load i32, ptr %30, align 4
  %76 = icmp eq i32 %75, 0
  %77 = xor i1 %76, true
  %78 = xor i1 %77, true
  %79 = zext i1 %78 to i32
  %80 = sext i32 %79 to i64
  %81 = call i64 @llvm.expect.i64(i64 %80, i64 0)
  %82 = icmp ne i64 %81, 0
  br i1 %82, label %83, label %84

83:                                               ; preds = %68
  store i8 1, ptr %9, align 1
  store i32 1, ptr %24, align 4
  br label %106

84:                                               ; preds = %68
  %85 = load ptr, ptr %12, align 8
  %86 = icmp ne ptr %85, null
  br i1 %86, label %87, label %105

87:                                               ; preds = %84
  %88 = load ptr, ptr %29, align 8
  %89 = getelementptr inbounds nuw %struct.NFAAccept, ptr %88, i32 0, i32 2
  %90 = load i32, ptr %89, align 4
  %91 = icmp ne i32 %90, -1
  br i1 %91, label %92, label %105

92:                                               ; preds = %87
  br label %93

93:                                               ; preds = %92
  br label %94

94:                                               ; preds = %93
  br label %95

95:                                               ; preds = %94
  call void @llvm.lifetime.start.p0(i64 8, ptr %31) #12
  %96 = load ptr, ptr %10, align 8
  %97 = load ptr, ptr %29, align 8
  %98 = getelementptr inbounds nuw %struct.NFAAccept, ptr %97, i32 0, i32 2
  %99 = load i32, ptr %98, align 4
  %100 = zext i32 %99 to i64
  %101 = getelementptr inbounds nuw i8, ptr %96, i64 %100
  store ptr %101, ptr %31, align 8
  %102 = load ptr, ptr %12, align 8
  call void @llvm.lifetime.start.p0(i64 48, ptr %32) #12
  %103 = load ptr, ptr %12, align 8
  %104 = load ptr, ptr %31, align 8
  call void @load384(ptr dead_on_unwind writable sret(%struct.m384) align 16 %33, ptr noundef %104)
  call void @and384(ptr dead_on_unwind writable sret(%struct.m384) align 16 %32, ptr noundef byval(%struct.m384) align 16 %103, ptr noundef byval(%struct.m384) align 16 %33)
  call void @llvm.memcpy.p0.p0.i64(ptr align 16 %102, ptr align 16 %32, i64 48, i1 false)
  call void @llvm.lifetime.end.p0(i64 48, ptr %32) #12
  call void @llvm.lifetime.end.p0(i64 8, ptr %31) #12
  br label %105

105:                                              ; preds = %95, %87, %84
  store i32 0, ptr %24, align 4
  br label %106

106:                                              ; preds = %105, %83
  call void @llvm.lifetime.end.p0(i64 4, ptr %30) #12
  call void @llvm.lifetime.end.p0(i64 8, ptr %29) #12
  call void @llvm.lifetime.end.p0(i64 4, ptr %28) #12
  call void @llvm.lifetime.end.p0(i64 4, ptr %27) #12
  call void @llvm.lifetime.end.p0(i64 4, ptr %26) #12
  %107 = load i32, ptr %24, align 4
  switch i32 %107, label %117 [
    i32 0, label %108
  ]

108:                                              ; preds = %106
  br label %48

109:                                              ; preds = %48
  %110 = load i32, ptr %23, align 4
  %111 = zext i32 %110 to i64
  %112 = getelementptr inbounds nuw [6 x i64], ptr %21, i64 0, i64 %111
  %113 = load i64, ptr %112, align 8
  %114 = call i32 @popcount64(i64 noundef %113)
  %115 = load i32, ptr %22, align 4
  %116 = add i32 %115, %114
  store i32 %116, ptr %22, align 4
  store i32 0, ptr %24, align 4
  br label %117

117:                                              ; preds = %109, %106
  call void @llvm.lifetime.end.p0(i64 8, ptr %25) #12
  %118 = load i32, ptr %24, align 4
  switch i32 %118, label %123 [
    i32 0, label %119
  ]

119:                                              ; preds = %117
  br label %120

120:                                              ; preds = %119
  %121 = load i32, ptr %23, align 4
  %122 = add i32 %121, 1
  store i32 %122, ptr %23, align 4
  br label %38

123:                                              ; preds = %117, %42
  call void @llvm.lifetime.end.p0(i64 4, ptr %23) #12
  %124 = load i32, ptr %24, align 4
  switch i32 %124, label %126 [
    i32 2, label %125
  ]

125:                                              ; preds = %123
  store i8 0, ptr %9, align 1
  store i32 1, ptr %24, align 4
  br label %126

126:                                              ; preds = %125, %123
  call void @llvm.lifetime.end.p0(i64 4, ptr %22) #12
  call void @llvm.lifetime.end.p0(i64 48, ptr %21) #12
  call void @llvm.lifetime.end.p0(i64 48, ptr %20) #12
  call void @llvm.lifetime.end.p0(i64 48, ptr %19) #12
  call void @llvm.lifetime.end.p0(i64 48, ptr %18) #12
  %127 = load i8, ptr %9, align 1
  ret i8 %127
}

; Function Attrs: noinline nounwind uwtable
define internal signext i8 @moProcessAcceptsNoSquash384(ptr noundef %0, ptr noundef %1, ptr noundef %2, ptr noundef %3, i64 noundef %4, ptr noundef %5, ptr noundef %6) #6 {
  %8 = alloca ptr, align 8
  %9 = alloca ptr, align 8
  %10 = alloca ptr, align 8
  %11 = alloca ptr, align 8
  %12 = alloca i64, align 8
  %13 = alloca ptr, align 8
  %14 = alloca ptr, align 8
  %15 = alloca ptr, align 8
  store ptr %0, ptr %8, align 8
  store ptr %1, ptr %9, align 8
  store ptr %2, ptr %10, align 8
  store ptr %3, ptr %11, align 8
  store i64 %4, ptr %12, align 8
  store ptr %5, ptr %13, align 8
  store ptr %6, ptr %14, align 8
  call void @llvm.lifetime.start.p0(i64 8, ptr %15) #12
  store ptr null, ptr %15, align 8
  %16 = load ptr, ptr %8, align 8
  %17 = load ptr, ptr %9, align 8
  %18 = load ptr, ptr %15, align 8
  %19 = load ptr, ptr %10, align 8
  %20 = load ptr, ptr %11, align 8
  %21 = load i64, ptr %12, align 8
  %22 = load ptr, ptr %13, align 8
  %23 = load ptr, ptr %14, align 8
  %24 = call signext i8 @moProcessAcceptsImpl384(ptr noundef %16, ptr noundef %17, ptr noundef %18, ptr noundef %19, ptr noundef %20, i64 noundef %21, ptr noundef %22, ptr noundef %23)
  call void @llvm.lifetime.end.p0(i64 8, ptr %15) #12
  ret i8 %24
}