; Function Attrs: noinline nounwind uwtable
define internal fastcc signext range(i8 0, 2) i8 @moProcessAcceptsNoSquash384(ptr noundef readonly captures(none) %0, ptr noundef nonnull readonly captures(none) %1, ptr noundef nonnull readonly captures(none) %2, ptr noundef readonly captures(none) %3, i64 noundef %4, ptr noundef readonly captures(none) %5, ptr noundef %6) unnamed_addr #5 {
  %8 = alloca [6 x i64], align 16
  %9 = alloca [6 x i64], align 16
  %.sroa.016.0.copyload = load <2 x i64>, ptr %2, align 16
  %.sroa.518.0..sroa_idx = getelementptr inbounds nuw i8, ptr %2, i64 16
  %.sroa.518.0.copyload = load <2 x i64>, ptr %.sroa.518.0..sroa_idx, align 16
  %.sroa.6.0..sroa_idx = getelementptr inbounds nuw i8, ptr %2, i64 32
  %.sroa.6.0.copyload = load <2 x i64>, ptr %.sroa.6.0..sroa_idx, align 16
  %.sroa.010.0.copyload = load <2 x i64>, ptr %1, align 1
  %.sroa.411.0..sroa_idx = getelementptr inbounds nuw i8, ptr %1, i64 16
  %.sroa.411.0.copyload = load <2 x i64>, ptr %.sroa.411.0..sroa_idx, align 1
  %.sroa.512.0..sroa_idx = getelementptr inbounds nuw i8, ptr %1, i64 32
  %.sroa.512.0.copyload = load <2 x i64>, ptr %.sroa.512.0..sroa_idx, align 1
  %10 = and <2 x i64> %.sroa.010.0.copyload, %.sroa.016.0.copyload
  %11 = and <2 x i64> %.sroa.411.0.copyload, %.sroa.518.0.copyload
  %12 = and <2 x i64> %.sroa.512.0.copyload, %.sroa.6.0.copyload
  call void @llvm.lifetime.start.p0(i64 48, ptr nonnull %8) #12
  store <2 x i64> %10, ptr %8, align 16
  %.sroa.4.0..sroa_idx = getelementptr inbounds nuw i8, ptr %8, i64 16
  store <2 x i64> %11, ptr %.sroa.4.0..sroa_idx, align 16
  %.sroa.5.0..sroa_idx = getelementptr inbounds nuw i8, ptr %8, i64 32
  store <2 x i64> %12, ptr %.sroa.5.0..sroa_idx, align 16
  call void @llvm.lifetime.start.p0(i64 48, ptr nonnull %9) #12
  store <2 x i64> %.sroa.016.0.copyload, ptr %9, align 16
  %.sroa.518.0..sroa_idx19 = getelementptr inbounds nuw i8, ptr %9, i64 16
  store <2 x i64> %.sroa.518.0.copyload, ptr %.sroa.518.0..sroa_idx19, align 16
  %.sroa.6.0..sroa_idx21 = getelementptr inbounds nuw i8, ptr %9, i64 32
  store <2 x i64> %.sroa.6.0.copyload, ptr %.sroa.6.0..sroa_idx21, align 16
  br label %13

13:                                               ; preds = %7, %.critedge.i.thread
  %indvars.iv = phi i64 [ 0, %7 ], [ %indvars.iv.next, %.critedge.i.thread ]
  %.031.i42 = phi i32 [ 0, %7 ], [ %44, %.critedge.i.thread ]
  %14 = getelementptr inbounds nuw [6 x i64], ptr %8, i64 0, i64 %indvars.iv
  %15 = load i64, ptr %14, align 8
  %.not.i38 = icmp eq i64 %15, 0
  %.phi.trans.insert = getelementptr inbounds nuw [6 x i64], ptr %9, i64 0, i64 %indvars.iv
  br i1 %.not.i38, label %..critedge.i.thread_crit_edge, label %.lr.ph40

..critedge.i.thread_crit_edge:                    ; preds = %13
  %.pre = load i64, ptr %.phi.trans.insert, align 8
  br label %.critedge.i.thread

.lr.ph40:                                         ; preds = %13, %limexRunAccept.exit.thread25
  %.039 = phi i64 [ %18, %limexRunAccept.exit.thread25 ], [ %15, %13 ]
  %16 = tail call { i64, i64 } asm "bsfq $1, $0\0Abtrq $0, $1\0A", "=r,=r,1,~{dirflag},~{fpsr},~{flags}"(i64 %.039) #13, !srcloc !132
  %17 = extractvalue { i64, i64 } %16, 0
  %18 = extractvalue { i64, i64 } %16, 1
  %19 = load i64, ptr %.phi.trans.insert, align 8
  %20 = and i64 %17, 4294967295
  %notmask.i = shl nsw i64 -1, %20
  %21 = xor i64 %notmask.i, -1
  %22 = and i64 %19, %21
  %23 = tail call range(i64 0, 64) i64 @llvm.ctpop.i64(i64 %22)
  %24 = trunc nuw nsw i64 %23 to i32
  %25 = add i32 %.031.i42, %24
  %26 = zext i32 %25 to i64
  %27 = getelementptr inbounds nuw %struct.NFAAccept, ptr %3, i64 %26
  %28 = load i8, ptr %27, align 4
  %.not.i7 = icmp eq i8 %28, 0
  %29 = getelementptr inbounds nuw i8, ptr %27, i64 4
  %30 = load i32, ptr %29, align 4
  br i1 %.not.i7, label %31, label %limexRunAccept.exit

31:                                               ; preds = %.lr.ph40
  %32 = zext i32 %30 to i64
  %33 = getelementptr inbounds nuw i8, ptr %0, i64 %32
  %34 = load i32, ptr %33, align 4
  %.not.i836 = icmp eq i32 %34, -1
  br i1 %.not.i836, label %limexRunAccept.exit.thread25, label %.lr.ph

35:                                               ; preds = %.lr.ph
  %36 = getelementptr inbounds nuw i8, ptr %.09.i37, i64 4
  %37 = load i32, ptr %36, align 4
  %.not.i8 = icmp eq i32 %37, -1
  br i1 %.not.i8, label %limexRunAccept.exit.thread25, label %.lr.ph

.lr.ph:                                           ; preds = %31, %35
  %38 = phi i32 [ %37, %35 ], [ %34, %31 ]
  %.09.i37 = phi ptr [ %36, %35 ], [ %33, %31 ]
  %39 = tail call i32 %5(i64 noundef 0, i64 noundef %4, i32 noundef %38, ptr noundef %6) #12
  %.not = icmp eq i32 %39, 0
  br i1 %.not, label %moProcessAcceptsImpl384.exit, label %35

limexRunAccept.exit:                              ; preds = %.lr.ph40
  %40 = tail call i32 %5(i64 noundef 0, i64 noundef %4, i32 noundef %30, ptr noundef %6) #12
  %.not42.i = icmp eq i32 %40, 0
  br i1 %.not42.i, label %moProcessAcceptsImpl384.exit, label %limexRunAccept.exit.thread25, !prof !626

limexRunAccept.exit.thread25:                     ; preds = %35, %31, %limexRunAccept.exit
  %.not.i = icmp eq i64 %18, 0
  br i1 %.not.i, label %.critedge.i.thread, label %.lr.ph40

.critedge.i.thread:                               ; preds = %limexRunAccept.exit.thread25, %..critedge.i.thread_crit_edge
  %41 = phi i64 [ %.pre, %..critedge.i.thread_crit_edge ], [ %19, %limexRunAccept.exit.thread25 ]
  %42 = tail call range(i64 0, 65) i64 @llvm.ctpop.i64(i64 %41)
  %43 = trunc nuw nsw i64 %42 to i32
  %44 = add i32 %.031.i42, %43
  %indvars.iv.next = add nuw nsw i64 %indvars.iv, 1
  %exitcond.not = icmp eq i64 %indvars.iv.next, 6
  br i1 %exitcond.not, label %moProcessAcceptsImpl384.exit, label %13

moProcessAcceptsImpl384.exit:                     ; preds = %.critedge.i.thread, %limexRunAccept.exit, %.lr.ph
  %spec.select.i = phi i8 [ 1, %.lr.ph ], [ 1, %limexRunAccept.exit ], [ 0, %.critedge.i.thread ]
  call void @llvm.lifetime.end.p0(i64 48, ptr nonnull %9) #12
  call void @llvm.lifetime.end.p0(i64 48, ptr nonnull %8) #12
  ret i8 %spec.select.i
}